target datalayout = "e-m:e-p270:32:32-p271:32:32-p272:64:64-i64:64-i128:128-f80:128-n8:16:32:64-S128"
target triple = "x86_64-pc-linux-gnu"

%"class.llvm::StringRef" = type { ptr, i64 }
%"class.llvm::Value" = type { i8, i8, i16, i32, ptr, ptr }
%"class.llvm::SmallVectorBase.57" = type { ptr, i32, i32 }
%"class.llvm::Type" = type { ptr, i32, i32, ptr }
%"class.llvm::IRBuilderBase" = type { %"class.llvm::SmallVector.89", ptr, %"class.llvm::ilist_iterator_w_bits", ptr, ptr, ptr, ptr, %"class.llvm::FastMathFlags", i8, i8, i8, %"class.llvm::ArrayRef" }
%"class.llvm::SmallVector.89" = type { %"class.llvm::SmallVectorImpl.90", %"struct.llvm::SmallVectorStorage.93" }
%"class.llvm::SmallVectorImpl.90" = type { %"class.llvm::SmallVectorTemplateBase.91" }
%"class.llvm::SmallVectorTemplateBase.91" = type { %"class.llvm::SmallVectorTemplateCommon.92" }
%"class.llvm::SmallVectorTemplateCommon.92" = type { %"class.llvm::SmallVectorBase.57" }
%"struct.llvm::SmallVectorStorage.93" = type { [32 x i8] }
%"class.llvm::ilist_iterator_w_bits" = type <{ ptr, i8, i8, [6 x i8] }>
%"class.llvm::FastMathFlags" = type { i32 }
%"class.llvm::ArrayRef" = type { ptr, i64 }

; Function Attrs: mustprogress nounwind uwtable
define linkonce_odr hidden noundef i32 @_ZNK4llvm4Type9getTypeIDEv(ptr noundef nonnull align 8 dereferenceable(24) %0) #1 comdat align 2 {
  %2 = alloca ptr, align 8
  store ptr %0, ptr %2, align 8
  %3 = load ptr, ptr %2, align 8
  %4 = getelementptr inbounds nuw %"class.llvm::Type", ptr %3, i32 0, i32 1
  %5 = load i32, ptr %4, align 8
  %6 = and i32 %5, 255
  ret i32 %6
}

; Function Attrs: mustprogress nounwind uwtable
define dso_local { ptr, i64 } @_ZN4llvm10getFloatFnEPKNS_6ModuleEPKNS_17TargetLibraryInfoEPNS_4TypeENS_7LibFuncES8_S8_RS8_(ptr noundef %0, ptr noundef %1, ptr noundef %2, i32 noundef %3, i32 noundef %4, i32 noundef %5, ptr noundef nonnull align 4 dereferenceable(4) %6) #1 {
  %8 = alloca %"class.llvm::StringRef", align 8
  %9 = alloca ptr, align 8
  %10 = alloca ptr, align 8
  %11 = alloca ptr, align 8
  %12 = alloca i32, align 4
  %13 = alloca i32, align 4
  %14 = alloca i32, align 4
  %15 = alloca ptr, align 8
  store ptr %0, ptr %9, align 8
  store ptr %1, ptr %10, align 8
  store ptr %2, ptr %11, align 8
  store i32 %3, ptr %12, align 4
  store i32 %4, ptr %13, align 4
  store i32 %5, ptr %14, align 4
  store ptr %6, ptr %15, align 8
  %16 = load ptr, ptr %11, align 8
  %17 = call noundef i32 @_ZNK4llvm4Type9getTypeIDEv(ptr noundef nonnull align 8 dereferenceable(24) %16)
  switch i32 %17, label %39 [
    i32 0, label %18
    i32 2, label %19
    i32 3, label %29
  ]

18:                                               ; preds = %7
  unreachable

19:                                               ; preds = %7
  %20 = load i32, ptr %13, align 4
  %21 = load ptr, ptr %15, align 8
  store i32 %20, ptr %21, align 4
  %22 = load ptr, ptr %10, align 8
  %23 = load i32, ptr %13, align 4
  %24 = call { ptr, i64 } @_ZNK4llvm17TargetLibraryInfo7getNameENS_7LibFuncE(ptr noundef nonnull align 8 dereferenceable(72) %22, i32 noundef %23)
  %25 = getelementptr inbounds nuw { ptr, i64 }, ptr %8, i32 0, i32 0
  %26 = extractvalue { ptr, i64 } %24, 0
  store ptr %26, ptr %25, align 8
  %27 = getelementptr inbounds nuw { ptr, i64 }, ptr %8, i32 0, i32 1
  %28 = extractvalue { ptr, i64 } %24, 1
  store i64 %28, ptr %27, align 8
  br label %49

29:                                               ; preds = %7
  %30 = load i32, ptr %12, align 4
  %31 = load ptr, ptr %15, align 8
  store i32 %30, ptr %31, align 4
  %32 = load ptr, ptr %10, align 8
  %33 = load i32, ptr %12, align 4
  %34 = call { ptr, i64 } @_ZNK4llvm17TargetLibraryInfo7getNameENS_7LibFuncE(ptr noundef nonnull align 8 dereferenceable(72) %32, i32 noundef %33)
  %35 = getelementptr inbounds nuw { ptr, i64 }, ptr %8, i32 0, i32 0
  %36 = extractvalue { ptr, i64 } %34, 0
  store ptr %36, ptr %35, align 8
  %37 = getelementptr inbounds nuw { ptr, i64 }, ptr %8, i32 0, i32 1
  %38 = extractvalue { ptr, i64 } %34, 1
  store i64 %38, ptr %37, align 8
  br label %49

39:                                               ; preds = %7
  %40 = load i32, ptr %14, align 4
  %41 = load ptr, ptr %15, align 8
  store i32 %40, ptr %41, align 4
  %42 = load ptr, ptr %10, align 8
  %43 = load i32, ptr %14, align 4
  %44 = call { ptr, i64 } @_ZNK4llvm17TargetLibraryInfo7getNameENS_7LibFuncE(ptr noundef nonnull align 8 dereferenceable(72) %42, i32 noundef %43)
  %45 = getelementptr inbounds nuw { ptr, i64 }, ptr %8, i32 0, i32 0
  %46 = extractvalue { ptr, i64 } %44, 0
  store ptr %46, ptr %45, align 8
  %47 = getelementptr inbounds nuw { ptr, i64 }, ptr %8, i32 0, i32 1
  %48 = extractvalue { ptr, i64 } %44, 1
  store i64 %48, ptr %47, align 8
  br label %49

49:                                               ; preds = %39, %29, %19
  %50 = load { ptr, i64 }, ptr %8, align 8
  ret { ptr, i64 } %50
}

; Function Attrs: mustprogress nounwind uwtable
define linkonce_odr hidden noundef ptr @_ZNK4llvm5Value7getTypeEv(ptr noundef nonnull align 8 dereferenceable(24) %0) #1 comdat align 2 {
  %2 = alloca ptr, align 8
  store ptr %0, ptr %2, align 8
  %3 = load ptr, ptr %2, align 8
  %4 = getelementptr inbounds nuw %"class.llvm::Value", ptr %3, i32 0, i32 4
  %5 = load ptr, ptr %4, align 8
  ret ptr %5
}

; Function Attrs: mustprogress nounwind uwtable
define linkonce_odr hidden noundef ptr @_ZN4llvm10BasicBlock9getModuleEv(ptr noundef nonnull align 8 dereferenceable(80) %0) #1 comdat align 2 {
  %2 = alloca ptr, align 8
  store ptr %0, ptr %2, align 8
  %3 = load ptr, ptr %2, align 8
  %4 = call noundef ptr @_ZNK4llvm10BasicBlock9getModuleEv(ptr noundef nonnull align 8 dereferenceable(80) %3)
  ret ptr %4
}

; Function Attrs: mustprogress nounwind uwtable
define linkonce_odr hidden noundef ptr @_ZNK4llvm13IRBuilderBase14GetInsertBlockEv(ptr noundef nonnull align 8 dereferenceable(128) %0) #1 comdat align 2 {
  %2 = alloca ptr, align 8
  store ptr %0, ptr %2, align 8
  %3 = load ptr, ptr %2, align 8
  %4 = getelementptr inbounds nuw %"class.llvm::IRBuilderBase", ptr %3, i32 0, i32 1
  %5 = load ptr, ptr %4, align 8
  ret ptr %5
}

; Function Attrs: mustprogress nounwind uwtable
define dso_local noundef ptr @_ZN4llvm20emitUnaryFloatFnCallEPNS_5ValueEPKNS_17TargetLibraryInfoENS_7LibFuncES5_S5_RNS_13IRBuilderBaseERKNS_13AttributeListE(ptr noundef %0, ptr noundef %1, i32 noundef %2, i32 noundef %3, i32 noundef %4, ptr noundef nonnull align 8 dereferenceable(128) %5, ptr noundef nonnull align 8 dereferenceable(8) %6) #1 {
  %8 = alloca ptr, align 8
  %9 = alloca ptr, align 8
  %10 = alloca i32, align 4
  %11 = alloca i32, align 4
  %12 = alloca i32, align 4
  %13 = alloca ptr, align 8
  %14 = alloca ptr, align 8
  %15 = alloca ptr, align 8
  %16 = alloca i32, align 4
  %17 = alloca %"class.llvm::StringRef", align 8
  %18 = alloca %"class.llvm::StringRef", align 8
  store ptr %0, ptr %8, align 8
  store ptr %1, ptr %9, align 8
  store i32 %2, ptr %10, align 4
  store i32 %3, ptr %11, align 4
  store i32 %4, ptr %12, align 4
  store ptr %5, ptr %13, align 8
  store ptr %6, ptr %14, align 8
  %19 = load ptr, ptr %13, align 8
  %20 = call noundef ptr @_ZNK4llvm13IRBuilderBase14GetInsertBlockEv(ptr noundef nonnull align 8 dereferenceable(128) %19)
  %21 = call noundef ptr @_ZN4llvm10BasicBlock9getModuleEv(ptr noundef nonnull align 8 dereferenceable(80) %20)
  store ptr %21, ptr %15, align 8
  %22 = load ptr, ptr %15, align 8
  %23 = load ptr, ptr %9, align 8
  %24 = load ptr, ptr %8, align 8
  %25 = call noundef ptr @_ZNK4llvm5Value7getTypeEv(ptr noundef nonnull align 8 dereferenceable(24) %24)
  %26 = load i32, ptr %10, align 4
  %27 = load i32, ptr %11, align 4
  %28 = load i32, ptr %12, align 4
  %29 = call { ptr, i64 } @_ZN4llvm10getFloatFnEPKNS_6ModuleEPKNS_17TargetLibraryInfoEPNS_4TypeENS_7LibFuncES8_S8_RS8_(ptr noundef %22, ptr noundef %23, ptr noundef %25, i32 noundef %26, i32 noundef %27, i32 noundef %28, ptr noundef nonnull align 4 dereferenceable(4) %16)
  %30 = getelementptr inbounds nuw { ptr, i64 }, ptr %17, i32 0, i32 0
  %31 = extractvalue { ptr, i64 } %29, 0
  store ptr %31, ptr %30, align 8
  %32 = getelementptr inbounds nuw { ptr, i64 }, ptr %17, i32 0, i32 1
  %33 = extractvalue { ptr, i64 } %29, 1
  store i64 %33, ptr %32, align 8
  %34 = load ptr, ptr %8, align 8
  %35 = load i32, ptr %16, align 4
  call void @llvm.memcpy.p0.p0.i64(ptr align 8 %18, ptr align 8 %17, i64 16, i1 false)
  %36 = load ptr, ptr %13, align 8
  %37 = load ptr, ptr %14, align 8
  %38 = load ptr, ptr %9, align 8
  %39 = getelementptr inbounds nuw { ptr, i64 }, ptr %18, i32 0, i32 0
  %40 = load ptr, ptr %39, align 8
  %41 = getelementptr inbounds nuw { ptr, i64 }, ptr %18, i32 0, i32 1
  %42 = load i64, ptr %41, align 8
  %43 = call noundef ptr @_ZL26emitUnaryFloatFnCallHelperPN4llvm5ValueENS_7LibFuncENS_9StringRefERNS_13IRBuilderBaseERKNS_13AttributeListEPKNS_17TargetLibraryInfoE(ptr noundef %34, i32 noundef %35, ptr %40, i64 %42, ptr noundef nonnull align 8 dereferenceable(128) %36, ptr noundef nonnull align 8 dereferenceable(8) %37, ptr noundef %38)
  ret ptr %43
}