; Function Attrs: mustprogress nounwind uwtable
define dso_local noundef ptr @_ZN4llvm20emitUnaryFloatFnCallEPNS_5ValueEPKNS_17TargetLibraryInfoENS_7LibFuncES5_S5_RNS_13IRBuilderBaseERKNS_13AttributeListE(ptr noundef %0, ptr noundef %1, i32 noundef %2, i32 noundef %3, i32 noundef %4, ptr noundef nonnull align 8 dereferenceable(128) %5, ptr noundef nonnull align 8 dereferenceable(8) %6) local_unnamed_addr #0 {
  %8 = getelementptr inbounds nuw i8, ptr %5, i64 48
  %9 = load ptr, ptr %8, align 8
  %10 = tail call noundef ptr @_ZNK4llvm10BasicBlock9getModuleEv(ptr noundef nonnull align 8 dereferenceable(80) %9) #7
  %11 = getelementptr inbounds nuw i8, ptr %0, i64 8
  %12 = load ptr, ptr %11, align 8
  %13 = getelementptr inbounds nuw i8, ptr %12, i64 8
  %14 = load i32, ptr %13, align 8
  %trunc.i = trunc i32 %14 to i8
  switch i8 %trunc.i, label %16 [
    i8 3, label %15
    i8 2, label %_ZN4llvm10getFloatFnEPKNS_6ModuleEPKNS_17TargetLibraryInfoEPNS_4TypeENS_7LibFuncES8_S8_RS8_.exit
  ]

15:                                               ; preds = %7
  br label %_ZN4llvm10getFloatFnEPKNS_6ModuleEPKNS_17TargetLibraryInfoEPNS_4TypeENS_7LibFuncES8_S8_RS8_.exit

16:                                               ; preds = %7
  br label %_ZN4llvm10getFloatFnEPKNS_6ModuleEPKNS_17TargetLibraryInfoEPNS_4TypeENS_7LibFuncES8_S8_RS8_.exit

_ZN4llvm10getFloatFnEPKNS_6ModuleEPKNS_17TargetLibraryInfoEPNS_4TypeENS_7LibFuncES8_S8_RS8_.exit: ; preds = %7, %15, %16
  %.sink13.i = phi i32 [ %4, %16 ], [ %2, %15 ], [ %3, %7 ]
  %17 = tail call { ptr, i64 } @_ZNK4llvm17TargetLibraryInfo7getNameENS_7LibFuncE(ptr noundef nonnull align 8 dereferenceable(72) %1, i32 noundef %.sink13.i)
  %18 = extractvalue { ptr, i64 } %17, 0
  %19 = extractvalue { ptr, i64 } %17, 1
  %20 = tail call fastcc noundef ptr @_ZL26emitUnaryFloatFnCallHelperPN4llvm5ValueENS_7LibFuncENS_9StringRefERNS_13IRBuilderBaseERKNS_13AttributeListEPKNS_17TargetLibraryInfoE(ptr noundef nonnull %0, i32 noundef %.sink13.i, ptr %18, i64 %19, ptr noundef nonnull align 8 dereferenceable(128) %5, ptr noundef nonnull align 8 dereferenceable(8) %6, ptr noundef nonnull %1)
  ret ptr %20
}